; ModuleID = 'source-C-CXX/44/1928.c'
source_filename = "source-C-CXX/44/1928.c"
target datalayout = "e-m:e-p270:32:32-p271:32:32-p272:64:64-i64:64-f80:128-n8:16:32:64-S128"
target triple = "x86_64-pc-linux-gnu"

@.str = private unnamed_addr constant [5 x i8] c"%s%s\00", align 1
@.str.1 = private unnamed_addr constant [4 x i8] c"%d\0A\00", align 1

; Function Attrs: nofree nounwind sspstrong uwtable
define dso_local i32 @main() local_unnamed_addr #0 {
  %1 = alloca [50 x i8], align 16
  %2 = alloca [50 x i8], align 16
  %3 = getelementptr inbounds [50 x i8], [50 x i8]* %1, i64 0, i64 0
  call void @llvm.lifetime.start.p0i8(i64 50, i8* nonnull %3) #4
  %4 = getelementptr inbounds [50 x i8], [50 x i8]* %2, i64 0, i64 0
  call void @llvm.lifetime.start.p0i8(i64 50, i8* nonnull %4) #4
  %5 = call i32 (i8*, ...) @__isoc99_scanf(i8* getelementptr inbounds ([5 x i8], [5 x i8]* @.str, i64 0, i64 0), i8* nonnull %3, i8* nonnull %4)
  %6 = call i64 @strlen(i8* noundef nonnull %3) #5
  %7 = call i64 @strlen(i8* noundef nonnull %4) #5
  %8 = trunc i64 %7 to i32
  %9 = load i8, i8* %3, align 16
  %10 = icmp sgt i32 %8, 0
  %11 = trunc i64 %6 to i32
  %12 = icmp sgt i32 %11, 1
  %13 = select i1 %10, i1 %12, i1 false
  br i1 %13, label %14, label %48

14:                                               ; preds = %0
  %15 = add i64 %6, 4294967295
  %16 = and i64 %15, 4294967295
  %17 = and i64 %7, 4294967295
  %18 = getelementptr inbounds [50 x i8], [50 x i8]* %1, i64 0, i64 1
  %19 = load i8, i8* %18, align 1
  br label %20

20:                                               ; preds = %14, %37
  %21 = phi i64 [ 0, %14 ], [ %38, %37 ]
  %22 = getelementptr inbounds [50 x i8], [50 x i8]* %2, i64 0, i64 %21
  %23 = load i8, i8* %22, align 1, !tbaa !5
  %24 = icmp eq i8 %9, %23
  br i1 %24, label %25, label %37

25:                                               ; preds = %20
  %26 = add nuw nsw i64 %21, 1
  %27 = getelementptr inbounds [50 x i8], [50 x i8]* %2, i64 0, i64 %26
  %28 = load i8, i8* %27, align 1, !tbaa !5
  %29 = icmp eq i8 %19, %28
  br i1 %29, label %40, label %37

30:                                               ; preds = %40
  %31 = getelementptr inbounds [50 x i8], [50 x i8]* %1, i64 0, i64 %44
  %32 = load i8, i8* %31, align 1, !tbaa !5
  %33 = add nuw nsw i64 %41, 1
  %34 = getelementptr inbounds [50 x i8], [50 x i8]* %2, i64 0, i64 %33
  %35 = load i8, i8* %34, align 1, !tbaa !5
  %36 = icmp eq i8 %32, %35
  br i1 %36, label %40, label %37, !llvm.loop !8

37:                                               ; preds = %30, %25, %20
  %38 = add nuw nsw i64 %21, 1
  %39 = icmp eq i64 %38, %17
  br i1 %39, label %48, label %20, !llvm.loop !10

40:                                               ; preds = %25, %30
  %41 = phi i64 [ %33, %30 ], [ %26, %25 ]
  %42 = phi i64 [ %44, %30 ], [ 1, %25 ]
  %43 = icmp eq i64 %42, %16
  %44 = add nuw nsw i64 %42, 1
  br i1 %43, label %45, label %30

45:                                               ; preds = %40
  %46 = trunc i64 %21 to i32
  %47 = call i32 (i8*, ...) @printf(i8* nonnull dereferenceable(1) getelementptr inbounds ([4 x i8], [4 x i8]* @.str.1, i64 0, i64 0), i32 %46)
  br label %48

48:                                               ; preds = %37, %0, %45
  call void @llvm.lifetime.end.p0i8(i64 50, i8* nonnull %4) #4
  call void @llvm.lifetime.end.p0i8(i64 50, i8* nonnull %3) #4
  ret i32 0
}

; Function Attrs: argmemonly mustprogress nofree nosync nounwind willreturn
declare void @llvm.lifetime.start.p0i8(i64 immarg, i8* nocapture) #1

; Function Attrs: nofree nounwind
declare noundef i32 @__isoc99_scanf(i8* nocapture noundef readonly, ...) local_unnamed_addr #2

; Function Attrs: argmemonly mustprogress nofree nounwind readonly willreturn
declare i64 @strlen(i8* nocapture) local_unnamed_addr #3

; Function Attrs: nofree nounwind
declare noundef i32 @printf(i8* nocapture noundef readonly, ...) local_unnamed_addr #2

; Function Attrs: argmemonly mustprogress nofree nosync nounwind willreturn
declare void @llvm.lifetime.end.p0i8(i64 immarg, i8* nocapture) #1


!llvm.module.flags = !{!0, !1, !2, !3}
!llvm.ident = !{!4}

!0 = !{i32 1, !"wchar_size", i32 4}
!1 = !{i32 7, !"PIC Level", i32 2}
!2 = !{i32 7, !"PIE Level", i32 2}
!3 = !{i32 7, !"uwtable", i32 1}
!4 = !{!"clang version 13.0.0"}
!5 = !{!6, !6, i64 0}
!6 = !{!"omnipotent char", !7, i64 0}
!7 = !{!"Simple C/C++ TBAA"}
!8 = distinct !{!8, !9}
!9 = !{!"llvm.loop.mustprogress"}
!10 = distinct !{!10, !9}
